(lp0
(S'First Year Writing Tutorial '
p1
S' ACEN 100 '
p2
S'Laura Marie Leavitt'
p3
tp4
a(S'First Year Writing Tutorial '
p5
S' ACEN 100 '
p6
S'Laura Marie Leavitt'
p7
tp8
a(S'First Year Writing Tutorial '
p9
S' ACEN 100 '
p10
S'Laura Marie Leavitt'
p11
tp12
a(S'Advance Writing Tutorial '
p13
S' ACEN 300 '
p14
S'Laura Marie Leavitt'
p15
tp16
a(S'Inequalities, Power and Society '
p17
S' AAAS 118 '
p18
S'Kelly Szott'
p19
tp20
a(S'African American Literature '
p21
S' AAAS 204 '
p22
S'Rebekah K. Trollinger'
p23
tp24
a(S'Religion & Culture of Hip Hop '
p25
S' AAAS 299 '
p26
S'James S. Logan'
p27
tp28
a(S'AAAS Senior Seminar '
p29
S' AAAS 488 '
p30
S'James S. Logan'
p31
tp32
a(S'Ancient Greek I '
p33
S' ANCS 101 '
p34
S'Susan Wise'
p35
tp36
a(S'Classical Latin I '
p37
S' ANCS 112 '
p38
S'Maxwell Teitel Paule'
p39
tp40
a(S'Reading Latin '
p41
S' ANCS 342 '
p42
S'Maxwell Teitel Paule'
p43
tp44
a(S'Words & Works of Ancient Rome '
p45
S' ANCS 350 '
p46
S'Susan Wise'
p47
tp48
a(S'Basic Arabic I '
p49
S' ARBC 101 '
p50
S'Kelly Nadine Tuttle'
p51
tp52
a(S'Intermediate Arabic I '
p53
S' ARBC 201 '
p54
S'Kelly Nadine Tuttle'
p55
tp56
a(S'Advanced Arabic: Listening '
p57
S' ARBC 303 '
p58
S'Kelly Nadine Tuttle'
p59
tp60
a(S'Drawing 1 '
p61
S' ART 105 '
p62
S'Mark Van Buskirk'
p63
tp64
a(S'Art: Context & Meaning '
p65
S' ART 115 '
p66
S'Anne Elizabeth Ronan'
p67
tp68
a(S'Art Cloth I '
p69
S' ART 202 '
p70
S'Nancy Taylor'
p71
tp72
a(S'Photography I '
p73
S' ART 235 '
p74
S'F. Walter Bistline'
p75
tp76
a(S'Photography I '
p77
S' ART 235 '
p78
S'F. Walter Bistline'
p79
tp80
a(S'Weaving 1 '
p81
S' ART 245 '
p82
S'Nancy Taylor'
p83
tp84
a(S'Making Art: Context, Form and Expression '
p85
S' ART 250 '
p86
S'Mark Van Buskirk'
p87
tp88
a(S'Modern Art & the Environment '
p89
S' ART 282 '
p90
S'Anne Elizabeth Ronan'
p91
tp92
a(S'Painting II '
p93
S' ART 325 '
p94
S'Mark Van Buskirk'
p95
tp96
a(S'Photography II '
p97
S' ART 335 '
p98
S'F. Walter Bistline'
p99
tp100
a(S'Weaving II '
p101
S' ART 345 '
p102
S'Nancy Taylor'
p103
tp104
a(S'The Arts of the Midwest '
p105
S' ART 382 '
p106
S'Anne Elizabeth Ronan'
p107
tp108
a(S'Painting III '
p109
S' ART 425 '
p110
S'Mark Van Buskirk'
p111
tp112
a(S'Painting IV '
p113
S' ART 426 '
p114
S'Mark Van Buskirk'
p115
tp116
a(S'Photography III '
p117
S' ART 435 '
p118
S'F. Walter Bistline'
p119
tp120
a(S'Weaving III '
p121
S' ART 445 '
p122
S'Nancy Taylor'
p123
tp124
a(S'Weaving IV '
p125
S' ART 446 '
p126
S'Nancy Taylor'
p127
tp128
a(S'Photography IV '
p129
S' ART 447 '
p130
S'F. Walter Bistline'
p131
tp132
a(S'Independent Studio Study '
p133
S' ART 475 '
p134
S'F. Walter Bistline'
p135
tp136
a(S'Senior Project: Weaving '
p137
S' ART 487 '
p138
S'Nancy Taylor'
p139
tp140
a(S'Senior Project: Photography '
p141
S' ART 487 '
p142
S'F. Walter Bistline'
p143
tp144
a(S'Senior Project: Art History '
p145
S' ART 487 '
p146
S'Anne Elizabeth Ronan'
p147
tp148
a(S'Senior Project: Painting '
p149
S' ART 487 '
p150
S'Mark Van Buskirk'
p151
tp152
a(S'Riding Lessons '
p153
S' AWPE 100 '
p154
S'Emily Malinda Smith'
p155
tp156
a(S'Introduction to Golf '
p157
S' AWPE 104 '
p158
S'Matthew Clark Gehring'
p159
tp160
a(S'Introduction to Golf '
p161
S' AWPE 104 '
p162
S'Matthew Clark Gehring'
p163
tp164
a(S'Intro to Rhythm & Spin '
p165
S' AWPE 106 '
p166
S'Lauren Marie Crump'
p167
tp168
a(S'Introduction to Equine Studies '
p169
S' AWPE 109 '
p170
S'Emily Malinda Smith'
p171
tp172
a(S'Beginning Bowling '
p173
S' AWPE 110 '
p174
S'Sam F. Byrd'
p175
tp176
a(S'Conditioning For Women '
p177
S' AWPE 112 '
p178
S'Janel Elaine Iden'
p179
tp180
a(S'Square Dance - Beginning '
p181
S' AWPE 115 '
p182
S'Richard K. Smith'
p183
tp184
a(S'Weight Training - Beginning '
p185
S' AWPE 117 '
p186
S'Stephen Sakosits'
p187
tp188
a(S'Tennis - Beginning '
p189
S' AWPE 118 '
p190
S'Justin Bradley Roe'
p191
tp192
a(S'Racquetball - Beginning '
p193
S' AWPE 120 '
p194
S'Jason Nicholas Fleenor'
p195
tp196
a(S'Jogging for Fitness '
p197
S' AWPE 124 '
p198
S'Nicholas Jacob Johnson'
p199
tp200
a(S'Yoga '
p201
S' AWPE 126 '
p202
S'Joni Lynn Rigoli'
p203
tp204
a(S'Group Fitness Beginning '
p205
S' AWPE 128 '
p206
S'Cathryn Dickman'
p207
tp208
a(S'Group Fitness '
p209
S' AWPE 128 '
p210
S'Cathryn Dickman'
p211
tp212
a(S'Speed & Power Training-Beg '
p213
S' AWPE 133 '
p214
S'Jason Nicholas Fleenor'
p215
tp216
a(S'Pilates '
p217
S' AWPE 136 '
p218
S'Joni Lynn Rigoli'
p219
tp220
a(S'Group Fitness-Advanced '
p221
S' AWPE 138 '
p222
S'Cathryn Dickman'
p223
tp224
a(S'Group Fitness-Advanced '
p225
S' AWPE 138 '
p226
S'Cathryn Dickman'
p227
tp228
a(S'Beginning Basketball '
p229
S' AWPE 150 '
p230
S'Jason Michael Polykoff'
p231
tp232
a(S'Basketball Basics '
p233
S' AWPE 150 '
p234
S'Jason Michael Polykoff'
p235
tp236
a(S'Gym Climbing '
p237
S' AWPE 201 '
p238
S'Jamey Leigh Pavey'
p239
tp240
a(S'Gym Climbing '
p241
S' AWPE 201 '
p242
S'Jamey Leigh Pavey'
p243
tp244
a(S'Gym Climbing '
p245
S' AWPE 201 '
p246
S'Jamey Leigh Pavey'
p247
tp248
a(S'Intermediate Gym Climbing '
p249
S' AWPE 202 '
p250
S'Jamey Leigh Pavey'
p251
tp252
a(S'Outdoor Rock Climbing '
p253
S' AWPE 204 '
p254
S'Jamey Leigh Pavey'
p255
tp256
a(S'Backpacking '
p257
S' AWPE 207 '
p258
S'Jamey Leigh Pavey'
p259
tp260
a(S'Trail Bldg/Inv Species Control '
p261
S' AWPE 210 '
p262
S'Brent Smith'
p263
tp264
a(S'Trail Bldg/Inv Species Control '
p265
S' AWPE 210 '
p266
S'Brent Smith'
p267
tp268
a(S'Lap Swimming - Beginning '
p269
S' AWPE 223 '
p270
S'Heather Davis Moore'
p271
tp272
a(S'First Aid & Emergency Mgmt '
p273
S' AWPE 240 '
p274
S'William A. Kinsey'
p275
tp276
a(S'Canoe Instructor '
p277
S' AWPE 300 '
p278
S'Jamey Leigh Pavey'
p279
tp280
a(S'Stables Instructor Program '
p281
S' AWPE 308 '
p282
S'Emily Malinda Smith'
p283
tp284
a(S'Advanced Rhythm & Spin '
p285
S' AWPE 406 '
p286
S'Lauren Marie Crump'
p287
tp288
a(S'Stables Barn Staff '
p289
S' AWPE 408 '
p290
S'Emily Malinda Smith'
p291
tp292
a(S'Bowling - Advanced '
p293
S' AWPE 410 '
p294
S'Sam F. Byrd'
p295
tp296
a(S'Advanced Conditioning '
p297
S' AWPE 414 '
p298
S'Janel Elaine Iden'
p299
tp300
a(S'Weight Training - Advanced '
p301
S' AWPE 417 '
p302
S'Stephen Sakosits'
p303
tp304
a(S'Tennis - Advanced '
p305
S' AWPE 418 '
p306
S'Justin Bradley Roe'
p307
tp308
a(S'Jogging-Advanced '
p309
S' AWPE 424 '
p310
S'Nicholas Jacob Johnson'
p311
tp312
a(S'Ecological Biology '
p313
S' BIOL 111 '
p314
S'Christopher R. Smith , Brent Smith , Wendy P. Tori'
p315
tp316
a(S'Ecological Biology '
p317
S' BIOL 111 '
p318
S'Christopher R. Smith , Brent Smith , Wendy P. Tori'
p319
tp320
a(S'Ecological Biology '
p321
S' BIOL 111 '
p322
S'Christopher R. Smith , Brent Smith , Wendy P. Tori'
p323
tp324
a(S'Ecological Biology '
p325
S' BIOL 111 '
p326
S'Christopher R. Smith , Brent Smith , Wendy P. Tori'
p327
tp328
a(S'Cell Physiology L and L '
p329
S' BIOL 341 '
p330
S'Robert L. Rosenberg , Lindsey Willett McGee'
p331
tp332
a(S'Anatomy & Physiology II '
p333
S' BIOL 347 '
p334
S'Robert L. Rosenberg'
p335
tp336
a(S'Evolutionary Biology '
p337
S' BIOL 451 '
p338
S'Heather Rachel Lerner'
p339
tp340
a(S'Population & Community Ecology '
p341
S' BIOL 455 '
p342
S'Brent Smith'
p343
tp344
a(S'Microbiology '
p345
S' BIOL 461 '
p346
S'Lindsey Willett McGee'
p347
tp348
a(S'Molecular Genetics '
p349
S' BIOL 466 '
p350
S'Emily Malinda Smith'
p351
tp352
a(S'Seminar '
p353
S' BIOL 480 '
p354
S'Wendy P. Tori'
p355
tp356
a(S'Student Research '
p357
S' BIOL 486 '
p358
S'Wendy P. Tori'
p359
tp360
a(S'Student Research '
p361
S' BIOL 486 '
p362
S'Emily Malinda Smith'
p363
tp364
a(S'Principles of Chemistry '
p365
S' CHEM 111 '
p366
S'Corinne C. Deibel'
p367
tp368
a(S'Principles of Chemistry '
p369
S' CHEM 111 '
p370
S'Demian Riccardi'
p371
tp372
a(S'Principles of Chemistry '
p373
S' CHEM 111 '
p374
S'Courtney Scerbak'
p375
tp376
a(S'Organic Chemistry II '
p377
S' CHEM 321 '
p378
S'Mark Gregory Stocksdale'
p379
tp380
a(S'Organic Chemistry II '
p381
S' CHEM 321 '
p382
S'Mark Gregory Stocksdale'
p383
tp384
a(S'Organic Chemistry II '
p385
S' CHEM 321 '
p386
S'Mark Gregory Stocksdale'
p387
tp388
a(S'Thermodynamics & Kinetics '
p389
S' CHEM 341 '
p390
S'Laurel Michelle Pegram'
p391
tp392
a(S'Biochemistry '
p393
S' CHEM 351 '
p394
S'Kalani J. Seu'
p395
tp396
a(S'Senior Seminar '
p397
S' CHEM 480 '
p398
S'Michael Deibel'
p399
tp400
a(S'Beginning Chinese '
p401
S' CHIN 101 '
p402
S'Susan T. Chen'
p403
tp404
a(S'Intermediate Chinese '
p405
S' CHIN 201 '
p406
S'Susan T. Chen'
p407
tp408
a(S'Self-Directed Lang Study '
p409
S' CLL 151 '
p410
S'Kelly Nadine Tuttle'
p411
tp412
a(S'CLL Major Colloquium '
p413
S' CLL 380 '
p414
S'Aletha Stahl'
p415
tp416
a(S'Field Study Pract/Internship '
p417
S' CLL 481 '
p418
S'Aletha Stahl'
p419
tp420
a(S'Senior Capstone Experience '
p421
S' CLL 488 '
p422
S'Aletha Stahl'
p423
tp424
a(S'Programming & Problem Solving '
p425
S' CS 128 '
p426
S'Charles Franklin Peck , David Michael Barbella'
p427
tp428
a(S'Programming & Problem Solving '
p429
S' CS 128 '
p430
S'Charles Franklin Peck , David Michael Barbella'
p431
tp432
a(S'Field Trip Preparation '
p433
S' CS 182 '
p434
S'Charles Franklin Peck'
p435
tp436
a(S'Networks, Crowds & Markets '
p437
S' CS 240 '
p438
S'Julie Beier'
p439
tp440
a(S'Applied Groups '
p441
S' CS 281 '
p442
S'Charles Franklin Peck'
p443
tp444
a(S'Applied Groups '
p445
S' CS 281 '
p446
S'Charles Franklin Peck'
p447
tp448
a(S'Algorithms '
p449
S' CS 310 '
p450
S'Xunfei Jiang'
p451
tp452
a(S'Computer Graphics '
p453
S' CS 370 '
p454
S'Xunfei Jiang'
p455
tp456
a(S'Theory of Computation '
p457
S' CS 380 '
p458
S'David Michael Barbella'
p459
tp460
a(S'Networks & Networking '
p461
S' CS 410 '
p462
S'Charles Franklin Peck'
p463
tp464
a(S'Student Research '
p465
S' CS 486 '
p466
S'Carmen Veronica Mosley Barbolla'
p467
tp468
a(S'Student Research '
p469
S' CS 486 '
p470
S'Charles Franklin Peck'
p471
tp472
a(S'Student Research '
p473
S' CS 486 '
p474
S'Xunfei Jiang'
p475
tp476
a(S'Senior Capstone Experience '
p477
S' CS 488 '
p478
S'Xunfei Jiang'
p479
tp480
a(S'Intro to Public Speaking '
p481
S' CIL 290 '
p482
S'Jennifer J. Lewis'
p483
tp484
a(S'Intro to Economics '
p485
S' ECON 100 '
p486
S'Jonathan Diskin'
p487
tp488
a(S'Intro to Economics '
p489
S' ECON 100 '
p490
S'Rajaram Krishnan'
p491
tp492
a(S'Statistics for Economics '
p493
S' ECON 204 '
p494
S'Mark Lautzenheiser'
p495
tp496
a(S'Intermediate Microeconomics '
p497
S' ECON 303 '
p498
S'Rajaram Krishnan'
p499
tp500
a(S'History of Economic Thought '
p501
S' ECON 310 '
p502
S'Mark Lautzenheiser'
p503
tp504
a(S'Money and Capital Markets '
p505
S' ECON 330 '
p506
S'Mark Lautzenheiser'
p507
tp508
a(S'Economics of The Environment '
p509
S' ECON 343 '
p510
S'Rajaram Krishnan'
p511
tp512
a(S'Urban Political Economy '
p513
S' ECON 345 '
p514
S'Jonathan Diskin'
p515
tp516
a(S'Senior Seminar '
p517
S' ECON 486 '
p518
S'Jonathan Diskin'
p519
tp520
a(S'African American Literature '
p521
S' ENG 204 '
p522
S'Rebekah K. Trollinger'
p523
tp524
a(S'American Literature and Ecology '
p525
S' ENG 205 '
p526
S'Scott D. Hess'
p527
tp528
a(S'Foundations of Literary Study '
p529
S' ENG 302 '
p530
S'Nathaniel Eastman'
p531
tp532
a(S'Creative Writing '
p533
S' ENG 321 '
p534
S'Shena Marie McAuliffe'
p535
tp536
a(S'Gender & Sexuality in Literature '
p537
S' ENG 358 '
p538
S'Rebekah K. Trollinger'
p539
tp540
a(S'Contemporary Literary Theory '
p541
S' ENG 369 '
p542
S'Rebekah K. Trollinger'
p543
tp544
a(S'Understanding Poetry '
p545
S' ENG 383 '
p546
S'Nathaniel Eastman'
p547
tp548
a(S'Reading and Writing Short Fiction '
p549
S' ENG 386 '
p550
S'Shena Marie McAuliffe'
p551
tp552
a(S'Research Seminar in English '
p553
S' ENG 401 '
p554
S'Scott D. Hess'
p555
tp556
a(S'Intro to American Values & Soc '
p557
S' ELL 200 '
p558
S'Candice Jean Marshall'
p559
tp560
a(S'Intermediate Academic Writing '
p561
S' ELL 201 '
p562
S'Candice Jean Marshall'
p563
tp564
a(S'Advanced Academic Writing '
p565
S' ELL 202 '
p566
S'Candice Jean Marshall'
p567
tp568
a(S'Eng Pronunciation & Speaking '
p569
S' ELL 282 '
p570
S'Jesse McCaughey'
p571
tp572
a(S'Climate Change Impacts & Adapt '
p573
S' ENSC 341 '
p574
S'Karen Hibbard-Rode Mager'
p575
tp576
a(S'Environmental Application '
p577
S' ENSC 353 '
p578
S'Karen Hibbard-Rode Mager'
p579
tp580
a(S'American Literature & Ecology '
p581
S' ENST 205 '
p582
S'Scott D. Hess'
p583
tp584
a(S'Environment & Society '
p585
S' ENST 240 '
p586
S'Jamey Leigh Pavey'
p587
tp588
a(S'Modern Art and the Environ '
p589
S' ENST 282 '
p590
S'Anne Elizabeth Ronan'
p591
tp592
a(S'Pedagogies of Place '
p593
S' ENST 320 '
p594
S'Jay W. Roberts'
p595
tp596
a(S'Environmental Policy II: Energy '
p597
S' ENST 324 '
p598
S'Thor Hogan'
p599
tp600
a(S'Eco-Spirituality: Global Traditions '
p601
S' ENST 340 '
p602
S'Jane Pinzino'
p603
tp604
a(S'Climate Change Impacts & Adapt '
p605
S' ENST 341 '
p606
S'Karen Hibbard-Rode Mager'
p607
tp608
a(S'Environmental Application '
p609
S' ENST 353 '
p610
S'Karen Hibbard-Rode Mager'
p611
tp612
a(S'Bioethics '
p613
S' ENST 363 '
p614
S'E. Marya Bower'
p615
tp616
a(S'Environmental Racism and Community Health '
p617
S' ENST 382 '
p618
S'Deborah Davis Jackson'
p619
tp620
a(S'Senior Capstone '
p621
S' ENST 488 '
p622
S'Karen Hibbard-Rode Mager , Jamey Leigh Pavey'
p623
tp624
a(S'Philosophy and Film Theory '
p625
S' FILM 252 '
p626
S'Ferit Guven'
p627
tp628
a(S'Basic French I '
p629
S' FREN 101 '
p630
S'Karim Sagna'
p631
tp632
a(S'Basic French I '
p633
S' FREN 101 '
p634
S'Karim Sagna'
p635
tp636
a(S'Intermediate French I '
p637
S' FREN 201 '
p638
S'Karim Sagna'
p639
tp640
a(S'Culture and Conversation '
p641
S' FREN 303 '
p642
S'Aletha Stahl'
p643
tp644
a(S'Riots and Rights: French an the World of Work '
p645
S' FREN 345 '
p646
S'Aletha Stahl'
p647
tp648
a(S'Earth & the Environment '
p649
S' GEOL 201 '
p650
S'Cynthia Fadem'
p651
tp652
a(S'Earth & the Environment '
p653
S' GEOL 201 '
p654
S'Elizabeth Carol Rhenberg'
p655
tp656
a(S'Earth and the Environment '
p657
S' GEOL 201 '
p658
S'Cynthia Fadem'
p659
tp660
a(S'Earth Materials '
p661
S' GEOL 315 '
p662
S'Margaret M. Streepey-Smith'
p663
tp664
a(S'Earth Surface Processes '
p665
S' GEOL 420 '
p666
S'Elizabeth Carol Rhenberg'
p667
tp668
a(S'Water '
p669
S' GEOL 430 '
p670
S'Cynthia Fadem'
p671
tp672
a(S'Senior Capstone Experience '
p673
S' GEOL 488 '
p674
S'Elizabeth Carol Rhenberg'
p675
tp676
a(S'Basic German I '
p677
S' GER 101 '
p678
S'Margaret Hampton'
p679
tp680
a(S'Intermediate German '
p681
S' GER 201 '
p682
S'Margaret Hampton'
p683
tp684
a(S'Contemporary German Speaking Countries '
p685
S' GER 408 '
p686
S'Margaret Hampton'
p687
tp688
a(S'Advanced Writing '
p689
S' GER 482 '
p690
S'Margaret Hampton'
p691
tp692
a(S'Intro to U.S. History to 1865 '
p693
S' HIST 121 '
p694
S'Thomas D. Hamm'
p695
tp696
a(S"European Women's and Gender History "
p697
S' HIST 246 '
p698
S'Elana Passman'
p699
tp700
a(S'The Long Century '
p701
S' HIST 346 '
p702
S'Elana Passman'
p703
tp704
a(S'Words and Works of Ancient Rome '
p705
S' HIST 350 '
p706
S'Susan Wise'
p707
tp708
a(S'Workplace Justice '
p709
S' HIST 351 '
p710
S'Ryan Patrick Murphy'
p711
tp712
a(S'Latin American History to 1825 '
p713
S' HIST 353 '
p714
S'Joanna Beth Swanger'
p715
tp716
a(S'History of Modern MENA '
p717
S' HIST 382 '
p718
S'Ahmed Khanani'
p719
tp720
a(S'Research Seminar:Post War '
p721
S' HIST 440 '
p722
S'Elana Passman'
p723
tp724
a(S'Modern China '
p725
S' HIST 472 '
p726
S'Hong-Hong Tinn'
p727
tp728
a(S'American Historiography '
p729
S' HIST 482 '
p730
S'Thomas D. Hamm'
p731
tp732
a(S'Self Society & Social Thought '
p733
S' HDSR 359 '
p734
S'Kelly Szott'
p735
tp736
a(S'Field Study '
p737
S' HDSR 363 '
p738
S'Isaac L. Hunter'
p739
tp740
a(S'Field Study Seminar '
p741
S' HDSR 364 '
p742
S'Isaac L. Hunter'
p743
tp744
a(S'Ethics & Social Justice '
p745
S' HDSR 479 '
p746
S'Deborah Davis Jackson'
p747
tp748
a(S'Student-Led Course '
p749
S' INTD 120 '
p750
S'Peter Blair'
p751
tp752
a(S'Miller Farm Sustainable Agriculture Practicum '
p753
S' INTD 121 '
p754
S'Jamey Leigh Pavey'
p755
tp756
a(S'Leonhard Euler and his Mathematics '
p757
S' INTD 122 '
p758
S'Timothy McLarnan'
p759
tp760
a(S'International Student Success '
p761
S' INTD 199 '
p762
S'Alison Edington , Max Andrew Crumley-Effinger'
p763
tp764
a(S'International Student Success '
p765
S' INTD 199 '
p766
S'Alison Edington , Max Andrew Crumley-Effinger'
p767
tp768
a(S'Student Led-Course '
p769
S' INTD 220 '
p770
S'Peter Blair'
p771
tp772
a(S'Student Led- Instructor '
p773
S' INTD 221 '
p774
S'Jamey Leigh Pavey'
p775
tp776
a(S'Leonhard Euler and his Mathematics '
p777
S' INTD 222 '
p778
S'Timothy McLarnan'
p779
tp780
a(S'Intro to Economics '
p781
S' INST 100 '
p782
S'Jonathan Diskin'
p783
tp784
a(S'Intro to Economics '
p785
S' INST 100 '
p786
S'Rajaram Krishnan'
p787
tp788
a(S'Intro to Politics '
p789
S' INST 111 '
p790
S'Jennifer Seely , Thor Hogan , Ahmed Khanani'
p791
tp792
a(S'Statistics for Economics '
p793
S' INST 204 '
p794
S'Mark Lautzenheiser'
p795
tp796
a(S'Politics Research Methods '
p797
S' INST 340 '
p798
S'Ahmed Khanani'
p799
tp800
a(S'Research Seminar: Postwar '
p801
S' INST 440 '
p802
S'Elana Passman'
p803
tp804
a(S'Modern China '
p805
S' INST 472 '
p806
S'Hong-Hong Tinn'
p807
tp808
a(S'Senior Capstone Experience '
p809
S' INST 488 '
p810
S'Jennifer Seely'
p811
tp812
a(S'Basic Japanese I '
p813
S' JAPN 101 '
p814
S'Yasumasa Shigenaga'
p815
tp816
a(S'Intermediate Japanese I '
p817
S' JAPN 201 '
p818
S'Yasumi Kuriya'
p819
tp820
a(S'Advanced Japanese I '
p821
S' JAPN 301 '
p822
S'Yasumasa Shigenaga'
p823
tp824
a(S'Teaching Japanese-Second Lang '
p825
S' JAPN 351 '
p826
S'Yasumi Kuriya'
p827
tp828
a(S'Topics in Japanese '
p829
S' JAPN 382 '
p830
S'Yasumi Kuriya'
p831
tp832
a(S'Japanese Cinema '
p833
S' JPNS 342 '
p834
S'Nan Ma Hartmann'
p835
tp836
a(S'Traditions in Japanese Lit '
p837
S' JPNS 344 '
p838
S'Nan Ma Hartmann'
p839
tp840
a(S'Chinese Political Thought '
p841
S' JPNS 368 '
p842
S'Peng Yu'
p843
tp844
a(S'Modern China '
p845
S' JPNS 472 '
p846
S'Hong-Hong Tinn'
p847
tp848
a(S'Senior Capstone Experience '
p849
S' JPNS 488 '
p850
S'Nan Ma Hartmann'
p851
tp852
a(S'Judaism '
p853
S' JWST 286 '
p854
S'Emily A. Filler'
p855
tp856
a(S'History of Modern MENA '
p857
S' JWST 382 '
p858
S'Ahmed Khanani'
p859
tp860
a(S'Intro to Economics '
p861
S' MGMT 100 '
p862
S'Jonathan Diskin'
p863
tp864
a(S'Intro to Economics '
p865
S' MGMT 100 '
p866
S'Rajaram Krishnan'
p867
tp868
a(S'Financial Accounting '
p869
S' MGMT 200 '
p870
S'Rebecca Jean Jestice'
p871
tp872
a(S'Statistics for Economics '
p873
S' MGMT 204 '
p874
S'Mark Lautzenheiser'
p875
tp876
a(S'Intermediate Microeconomics '
p877
S' MGMT 303 '
p878
S'Rajaram Krishnan'
p879
tp880
a(S'Environmental Policy II- Energy '
p881
S' MGMT 324 '
p882
S'Thor Hogan'
p883
tp884
a(S'Money and Capital Markets '
p885
S' MGMT 330 '
p886
S'Mark Lautzenheiser'
p887
tp888
a(S'Leadership and Dealing with Differences '
p889
S' MGMT 342 '
p890
S'Rebecca Jean Jestice'
p891
tp892
a(S'Conflict Resolution '
p893
S' MGMT 343 '
p894
S'Joanna Beth Swanger'
p895
tp896
a(S'Field Experience Seminar '
p897
S' MGMT 381 '
p898
S'Leroy E. Hambrick'
p899
tp900
a(S'Senior Capstone Experience '
p901
S' MGMT 488 '
p902
S'Rebecca Jean Jestice'
p903
tp904
a(S'Calculus A '
p905
S' MATH 180 '
p906
S'Timothy McLarnan'
p907
tp908
a(S'Calculus A '
p909
S' MATH 180 '
p910
S'Julie Beier'
p911
tp912
a(S'Discrete Mathematics '
p913
S' MATH 190 '
p914
S'Timothy McLarnan'
p915
tp916
a(S'Discrete Mathematics '
p917
S' MATH 190 '
p918
S'Timothy McLarnan'
p919
tp920
a(S'Networks, Crowds, & Markets '
p921
S' MATH 240 '
p922
S'Julie Beier'
p923
tp924
a(S'Linear Algebra '
p925
S' MATH 310 '
p926
S'Anand Pardhanani'
p927
tp928
a(S'Differential Equations '
p929
S' MATH 320 '
p930
S'Anand Pardhanani'
p931
tp932
a(S'Abstract Algebra A '
p933
S' MATH 420 '
p934
S'Julie Beier'
p935
tp936
a(S'Comprehensive Independent Study '
p937
S' MATH 486 '
p938
S'Julie Beier'
p939
tp940
a(S'Senior Capstone Experience '
p941
S' MATH 488 '
p942
S'Anand Pardhanani'
p943
tp944
a(S'Art Context & Meaning '
p945
S' MUSE 115 '
p946
S'Anne Elizabeth Ronan'
p947
tp948
a(S'Uses and Abuses of Museums '
p949
S' MUSE 224 '
p950
S'Susan Wise'
p951
tp952
a(S'Curatorial Practicum '
p953
S' MUSE 400 '
p954
S'Evelyn M. Koehnline'
p955
tp956
a(S'Introduction to World Musics '
p957
S' MUS 161 '
p958
S'Marc Benamou'
p959
tp960
a(S'Music Theory I '
p961
S' MUS 171 '
p962
S'Christine Ann Rogan'
p963
tp964
a(S'Sight Singing '
p965
S' MUS 173 '
p966
S'Danielle M. Steele'
p967
tp968
a(S'Jazz Theory I '
p969
S' MUS 275 '
p970
S'Pavel Polanco-Safadit'
p971
tp972
a(S'Topics in Cont. Pop Music '
p973
S' MUS 353 '
p974
S'William E. Culverhouse'
p975
tp976
a(S'Music Theory III: Compositional Techniques (Counterpoint and Part Writing) '
p977
S' MUS 371 '
p978
S'Forrest Tobey'
p979
tp980
a(S'Making Music with Computers '
p981
S' MUS 372 '
p982
S'Forrest Tobey'
p983
tp984
a(S'Western Classical Music '
p985
S' MUS 440 '
p986
S'William E. Culverhouse'
p987
tp988
a(S'Ethnomusicology:Meth & Issues '
p989
S' MUS 460 '
p990
S'Marc Benamou'
p991
tp992
a(S'Senior Seminar '
p993
S' MUS 487 '
p994
S'William E. Culverhouse , Marc Benamou , Forrest Tobey'
p995
tp996
a(S'Senior Capstone '
p997
S' MUS 488 '
p998
S'Forrest Tobey'
p999
tp1000
a(S'Hand-Drum Ensemble '
p1001
S' MUSG 121 '
p1002
S'Keith Cozart'
p1003
tp1004
a(S'Beg. Javanese Gamelan Ensemble '
p1005
S' MUSG 127 '
p1006
S'Marc Benamou'
p1007
tp1008
a(S'Gospel Revelations '
p1009
S' MUSG 131 '
p1010
S'Patrick Piper'
p1011
tp1012
a(S'Orchestra '
p1013
S' MUSG 220 '
p1014
S'Forrest Tobey'
p1015
tp1016
a(S'Woodwind Quintet '
p1017
S' MUSG 223 '
p1018
S'Erin R. Roesch'
p1019
tp1020
a(S'Flute Choir '
p1021
S' MUSG 224 '
p1022
S'Elaine Bergman'
p1023
tp1024
a(S'Jazz Ensemble '
p1025
S' MUSG 225 '
p1026
S'Pavel Polanco-Safadit'
p1027
tp1028
a(S'Latin Jazz Combo '
p1029
S' MUSG 226 '
p1030
S'Pavel Polanco-Safadit'
p1031
tp1032
a(S'Earlham Rhythm Project '
p1033
S' MUSG 229 '
p1034
S'Keith Cozart'
p1035
tp1036
a(S"Women's Chorus "
p1037
S' MUSG 230 '
p1038
S'Danielle M. Steele'
p1039
tp1040
a(S'Concert Choir '
p1041
S' MUSG 233 '
p1042
S'William E. Culverhouse'
p1043
tp1044
a(S'Int. Javanese Gamelan Ensemble '
p1045
S' MUSG 327 '
p1046
S'Marc Benamou'
p1047
tp1048
a(S'String Quartet '
p1049
S' MUSG 328 '
p1050
S'Kevin Thomas Nordstrom'
p1051
tp1052
a(S"Women's Chorus "
p1053
S' MUSG 330 '
p1054
S'Danielle M. Steele'
p1055
tp1056
a(S'Concert Choir '
p1057
S' MUSG 333 '
p1058
S'William E. Culverhouse'
p1059
tp1060
a(S'Madrigal Singers '
p1061
S' MUSG 334 '
p1062
S'William E. Culverhouse'
p1063
tp1064
a(S"Men's Vocal Quartet "
p1065
S' MUSG 335 '
p1066
S'Danielle M. Steele'
p1067
tp1068
a(S'Applied Harp '
p1069
S' MUSL 100 '
p1070
S'Joanne King'
p1071
tp1072
a(S'Applied Voice '
p1073
S' MUSL 101 '
p1074
S'Lynnell Lewis'
p1075
tp1076
a(S'Applied Voice '
p1077
S' MUSL 101 '
p1078
S'Robert A. Williams'
p1079
tp1080
a(S'Applied Piano '
p1081
S' MUSL 102 '
p1082
S'Christine Ann Rogan'
p1083
tp1084
a(S'Applied Piano '
p1085
S' MUSL 102 '
p1086
S'Caryl Bailey'
p1087
tp1088
a(S'Applied Violin/Viola '
p1089
S' MUSL 104 '
p1090
S'Kevin Thomas Nordstrom'
p1091
tp1092
a(S'Applied Cello '
p1093
S' MUSL 105 '
p1094
S'Jennifer Wagner'
p1095
tp1096
a(S'Applied Flute '
p1097
S' MUSL 107 '
p1098
S'Elaine Bergman'
p1099
tp1100
a(S'Applied Oboe '
p1101
S' MUSL 108 '
p1102
S'Julie Ann Smith'
p1103
tp1104
a(S'Applied Bassoon '
p1105
S' MUSL 110 '
p1106
S'Lauren Piccirillo'
p1107
tp1108
a(S'Applied Saxophone '
p1109
S' MUSL 111 '
p1110
S'Robert C. Dixon'
p1111
tp1112
a(S'Applied Trumpet '
p1113
S' MUSL 112 '
p1114
S'Michael P. Richter'
p1115
tp1116
a(S'Applied French Horn '
p1117
S' MUSL 113 '
p1118
S'Sean Daniel Vore'
p1119
tp1120
a(S'Applied Trombone '
p1121
S' MUSL 114 '
p1122
S'Richard Begel'
p1123
tp1124
a(S'Applied Guitar '
p1125
S' MUSL 116 '
p1126
S'Charlie Estes'
p1127
tp1128
a(S'Applied Guitar '
p1129
S' MUSL 116 '
p1130
S'Rex Bailey'
p1131
tp1132
a(S'Applied Banjo '
p1133
S' MUSL 116 '
p1134
S'Charlie Estes'
p1135
tp1136
a(S'Applied Percussion '
p1137
S' MUSL 117 '
p1138
S'Keith Cozart'
p1139
tp1140
a(S'Voice Class '
p1141
S' MUSL 132 '
p1142
S'Danielle M. Steele'
p1143
tp1144
a(S'Jazz Piano Improvisation '
p1145
S' MUSL 218 '
p1146
S'Pavel Polanco-Safadit'
p1147
tp1148
a(S'CCI-Pre '
p1149
S' 0FFC 124 '
p1150
S'Patricia Lamson , Jennifer J. Lewis'
p1151
tp1152
a(S'CCII-Post '
p1153
S' 0FFC 124 '
p1154
S'Patricia Lamson , Jennifer J. Lewis'
p1155
tp1156
a(S'Intro to Economics '
p1157
S' PAGS 100 '
p1158
S'Jonathan Diskin'
p1159
tp1160
a(S'Intro to Economics '
p1161
S' PAGS 100 '
p1162
S'Rajaram Krishnan'
p1163
tp1164
a(S'Intro to Politics '
p1165
S' PAGS 111 '
p1166
S'Jennifer Seely , Thor Hogan , Ahmed Khanani'
p1167
tp1168
a(S'Identities & Social Movement '
p1169
S' PAGS 215 '
p1170
S'Jo Ann Martin'
p1171
tp1172
a(S'Conflict Resolution '
p1173
S' PAGS 343 '
p1174
S'Joanna Beth Swanger'
p1175
tp1176
a(S'Workplace Justice '
p1177
S' PAGS 351 '
p1178
S'Ryan Patrick Murphy'
p1179
tp1180
a(S'Latin America to 1825 '
p1181
S' PAGS 353 '
p1182
S'Joanna Beth Swanger'
p1183
tp1184
a(S'Activism Beyond Ego '
p1185
S' PAGS 382 '
p1186
S'Linda Miller'
p1187
tp1188
a(S'Research Seminar: Postwar '
p1189
S' PAGS 440 '
p1190
S'Elana Passman'
p1191
tp1192
a(S'Senior Capstone Experience '
p1193
S' PAGS 488 '
p1194
S'Joanna Beth Swanger'
p1195
tp1196
a(S'Introduction to Philosophy '
p1197
S' PHIL 120 '
p1198
S'Kevin Miles'
p1199
tp1200
a(S'Ancient Greek Philosophy '
p1201
S' PHIL 155 '
p1202
S'Kevin Miles'
p1203
tp1204
a(S'Existential Themes in Literature & Philosophy '
p1205
S' PHIL 180 '
p1206
S'Ferit Guven'
p1207
tp1208
a(S'Philosophy and Film Theory '
p1209
S' PHIL 252 '
p1210
S'Ferit Guven'
p1211
tp1212
a(S'Bioethics '
p1213
S' PHIL 363 '
p1214
S'E. Marya Bower'
p1215
tp1216
a(S'Encounters with Cosmos '
p1217
S' PHYS 115 '
p1218
S'Kyle Thomas Zilic'
p1219
tp1220
a(S'Analytical Physics I '
p1221
S' PHYS 125 '
p1222
S'Michael George Lerner'
p1223
tp1224
a(S'Introduction to Modern Physics '
p1225
S' PHYS 345 '
p1226
S'Kyle Thomas Zilic'
p1227
tp1228
a(S'Faculty/Student Collaborative Research '
p1229
S' PHYS 484 '
p1230
S'Michael George Lerner'
p1231
tp1232
a(S'Intro to Politics '
p1233
S' POLS 111 '
p1234
S'Thor Hogan , Ahmed Khanani , Jennifer Seely'
p1235
tp1236
a(S'Intro to Diplomacy '
p1237
S' POLS 170 '
p1238
S'Peng Yu'
p1239
tp1240
a(S'Environmental Policy II:Energy '
p1241
S' POLS 324 '
p1242
S'Thor Hogan'
p1243
tp1244
a(S'Politics Research Methods '
p1245
S' POLS 340 '
p1246
S'Ahmed Khanani'
p1247
tp1248
a(S'Political Parties & Elections '
p1249
S' POLS 341 '
p1250
S'Thor Hogan'
p1251
tp1252
a(S'Chinese Political Thought '
p1253
S' POLS 368 '
p1254
S'Peng Yu'
p1255
tp1256
a(S'Politics of Authoritarianism '
p1257
S' POLS 369 '
p1258
S'Peng Yu'
p1259
tp1260
a(S'History Modern Middle East and North Africa '
p1261
S' POLS 382 '
p1262
S'Ahmed Khanani'
p1263
tp1264
a(S'Intro to Psych Perspectives '
p1265
S' PSYC 115 '
p1266
S'Nelson Bingham'
p1267
tp1268
a(S'Intro to Psych Perspectives '
p1269
S' PSYC 115 '
p1270
S'Tianyi Tong'
p1271
tp1272
a(S'Behavior,Health Care & Society '
p1273
S' PSYC 116 '
p1274
S'Rachael D. Reavis'
p1275
tp1276
a(S'Adult Psychopathology '
p1277
S' PSYC 220 '
p1278
S'Rachael D. Reavis'
p1279
tp1280
a(S'Adult Psychopathology: Service Learning '
p1281
S' PSYC 221 '
p1282
S'Rachael D. Reavis'
p1283
tp1284
a(S'Research Methods & Statistics '
p1285
S' PSYC 245 '
p1286
S'Katharine Milar'
p1287
tp1288
a(S'Brain and Behavior '
p1289
S' PSYC 250 '
p1290
S'Katharine Milar'
p1291
tp1292
a(S'Psychology of Prejudice '
p1293
S' PSYC 356 '
p1294
S'Margaret Ann Thomas'
p1295
tp1296
a(S'Personality '
p1297
S' PSYC 365 '
p1298
S'Nelson Bingham'
p1299
tp1300
a(S'Cradle and Grave '
p1301
S' PSYC 366 '
p1302
S'Vincent Punzo'
p1303
tp1304
a(S'Psychology of Sport '
p1305
S' PSYC 372 '
p1306
S'Vincent Punzo'
p1307
tp1308
a(S'History of Psychology '
p1309
S' PSYC 480 '
p1310
S'Katharine Milar'
p1311
tp1312
a(S'Teaching Assistant '
p1313
S' PSYC 483 '
p1314
S'Rachael D. Reavis'
p1315
tp1316
a(S'Teaching Assistant '
p1317
S' PSYC 483 '
p1318
S'Tianyi Tong'
p1319
tp1320
a(S'Birth to Five '
p1321
S' PSYC 484 '
p1322
S'Rachael D. Reavis'
p1323
tp1324
a(S'Comprehensive Research Project '
p1325
S' PSYC 486 '
p1326
S'Margaret Ann Thomas'
p1327
tp1328
a(S'Quaker Fellows '
p1329
S' REL 158 '
p1330
S'Patricia Dawn Eckert'
p1331
tp1332
a(S'Judaism '
p1333
S' REL 286 '
p1334
S'Emily A. Filler'
p1335
tp1336
a(S'Religion & Culture of Hip Hop '
p1337
S' REL 299 '
p1338
S'James S. Logan'
p1339
tp1340
a(S'REL Maj & Minor Colloquium '
p1341
S' REL 301 '
p1342
S'Linda Miller'
p1343
tp1344
a(S'Is Religion "T(t)RUE" ? '
p1345
S' REL 310 '
p1346
S'Linda Miller'
p1347
tp1348
a(S'Eco-Spirituality: Global Traditions '
p1349
S' REL 340 '
p1350
S'Jane Pinzino'
p1351
tp1352
a(S'Activism Beyond Ego '
p1353
S' REL 382 '
p1354
S'Linda Miller'
p1355
tp1356
a(S'SR Capstone & Rsch. Seminar '
p1357
S' REL 488 '
p1358
S'Linda Miller'
p1359
tp1360
a(S'Inequalities, Power and Society '
p1361
S' SOAN 118 '
p1362
S'Kelly Szott'
p1363
tp1364
a(S'Identity and Social Movements '
p1365
S' SOAN 215 '
p1366
S'Jo Ann Martin'
p1367
tp1368
a(S'Health, Medicine & Society '
p1369
S' SOAN 335 '
p1370
S'Daniel Rosenberg'
p1371
tp1372
a(S'Ethnographic Research Practicum I '
p1373
S' SOAN 346 '
p1374
S'Daniel Rosenberg'
p1375
tp1376
a(S'Deviance, Transgression and Social Control '
p1377
S' SOAN 356 '
p1378
S'Daniel Rosenberg'
p1379
tp1380
a(S'Environmental Racism and Community Health '
p1381
S' SOAN 382 '
p1382
S'Deborah Davis Jackson'
p1383
tp1384
a(S'Senior Capstone Experience '
p1385
S' SOAN 488 '
p1386
S'Jo Ann Martin'
p1387
tp1388
a(S'Basic Spanish I '
p1389
S' SPAN 101 '
p1390
S'Nelson Danilo Leon'
p1391
tp1392
a(S'Super Spanish '
p1393
S' SPAN 105 '
p1394
S'Belen Villarreal'
p1395
tp1396
a(S'Intermediate Spanish '
p1397
S' SPAN 201 '
p1398
S'Nelson Danilo Leon'
p1399
tp1400
a(S'Intermediate Spanish II '
p1401
S' SPAN 202 '
p1402
S'Christine Denise Swafford'
p1403
tp1404
a(S'Introduction to Text Analysis '
p1405
S' SPAN 301 '
p1406
S'Nelson Danilo Leon'
p1407
tp1408
a(S'Text & Cultures '
p1409
S' SPAN 346 '
p1410
S'Christine Denise Swafford'
p1411
tp1412
a(S'Topics in Advanced Spanish Linguistics II '
p1413
S' SPAN 406 '
p1414
S'Belen Villarreal'
p1415
tp1416
a(S'Senior Capstone Experience '
p1417
S' SPAN 488 '
p1418
S'Christine Denise Swafford'
p1419
tp1420
a(S'Applied Theatre:Acting '
p1421
S' THEA 130 '
p1422
S'Lynne Perkins Socey'
p1423
tp1424
a(S'Applied Theatre:Light '
p1425
S' THEA 135 '
p1426
S'Michael White'
p1427
tp1428
a(S'Cosplay '
p1429
S' THEA 182 '
p1430
S'Mia Slayton'
p1431
tp1432
a(S'Applied Theatre:Acting '
p1433
S' THEA 230 '
p1434
S'Lynne Perkins Socey'
p1435
tp1436
a(S'Foundations of Acting '
p1437
S' THEA 260 '
p1438
S'Lynne Perkins Socey'
p1439
tp1440
a(S'Theatrecraft '
p1441
S' THEA 270 '
p1442
S'Mia Slayton'
p1443
tp1444
a(S'Intro to Public Speaking '
p1445
S' THEA 290 '
p1446
S'Jennifer J. Lewis'
p1447
tp1448
a(S'Applied Theatre: Acting '
p1449
S' THEA 330 '
p1450
S'Lynne Perkins Socey'
p1451
tp1452
a(S'Applied Theatre: Assistant Stage Manager '
p1453
S' THEA 333 '
p1454
S'Mia Slayton'
p1455
tp1456
a(S'Applied Theatre: Master Electrician '
p1457
S' THEA 335 '
p1458
S'Michael White'
p1459
tp1460
a(S'Applied Theatre: Dramaturgy '
p1461
S' THEA 337 '
p1462
S'Nathaniel Eastman'
p1463
tp1464
a(S'Assistant Designer '
p1465
S' THEA 339 '
p1466
S'Michael White , Mia Slayton'
p1467
tp1468
a(S'Audition Portfolio '
p1469
S' THEA 362 '
p1470
S'Lynne Perkins Socey'
p1471
tp1472
a(S'Directing '
p1473
S' THEA 370 '
p1474
S'Lynne Perkins Socey'
p1475
tp1476
a(S'Drawing & Rendering Designs '
p1477
S' THEA 372 '
p1478
S'Mia Slayton'
p1479
tp1480
a(S'Applied Theatre:Stage Manager '
p1481
S' THEA 433 '
p1482
S'Mia Slayton'
p1483
tp1484
a(S'Applied Theatre:Costume Design '
p1485
S' THEA 434 '
p1486
S'Mia Slayton'
p1487
tp1488
a(S'Applied Theatre: Student Lighting/Sound '
p1489
S' THEA 435 '
p1490
S'Michael White'
p1491
tp1492
a(S'Student Set Designer '
p1493
S' THEA 437 '
p1494
S'Michael White'
p1495
tp1496
a(S'Applied Theatre: Student Tech Director '
p1497
S' THEA 438 '
p1498
S'Mia Slayton'
p1499
tp1500
a(S'Applied Theatre: Student Director '
p1501
S' THEA 439 '
p1502
S'Lynne Perkins Socey'
p1503
tp1504
a(S'Senior Capstone Experience: Preperation '
p1505
S' THEA 488 '
p1506
S'Lynne Perkins Socey , Mia Slayton , Michael White'
p1507
tp1508
a(S'Senior Capstone Experience: Implementation '
p1509
S' THEA 488 '
p1510
S'Lynne Perkins Socey , Mia Slayton , Michael White'
p1511
tp1512
a(S"European Women's History "
p1513
S' WGSS 246 '
p1514
S'Elana Passman'
p1515
tp1516
a(S'Gender and Sexuality in Literature '
p1517
S' WGSS 358 '
p1518
S'Rebekah K. Trollinger'
p1519
tp1520
a.